target datalayout = "e-m:e-p270:32:32-p271:32:32-p272:64:64-i64:64-i128:128-f80:128-n8:16:32:64-S128"
target triple = "x86_64-pc-linux-gnu"

%struct.AVFilterContext = type { ptr, ptr, ptr, ptr, ptr, i32, ptr, ptr, i32, ptr, ptr, i32, i32, ptr, ptr, ptr, ptr, i32, ptr, i32, i32 }
%struct.NLMeansContext = type { ptr, i32, i32, i32, double, double, i32, i32, i32, i32, i32, i32, i32, i32, ptr, ptr, i32, i32, i64, ptr, ptr, i32, ptr, i32, %struct.NLMeansDSPContext }
%struct.NLMeansDSPContext = type { ptr, ptr }

@.str.15 = private unnamed_addr constant [57 x i8] c"Luma research window size must be odd, setting it to %d\0A\00", align 1
@.str.16 = private unnamed_addr constant [47 x i8] c"Luma patch size must be odd, setting it to %d\0A\00", align 1
@.str.17 = private unnamed_addr constant [59 x i8] c"Chroma research window size must be odd, setting it to %d\0A\00", align 1
@.str.18 = private unnamed_addr constant [49 x i8] c"Chroma patch size must be odd, setting it to %d\0A\00", align 1
@.str.19 = private unnamed_addr constant [59 x i8] c"Research window: %dx%d / %dx%d, patch size: %dx%d / %dx%d\0A\00", align 1

; Function Attrs: nounwind uwtable
define internal void @ff_nlmeans_init(ptr noundef %0) #1 {
  %2 = alloca ptr, align 8
  store ptr %0, ptr %2, align 8, !tbaa !95
  %3 = load ptr, ptr %2, align 8, !tbaa !95
  %4 = getelementptr inbounds nuw %struct.NLMeansDSPContext, ptr %3, i32 0, i32 0
  store ptr @compute_safe_ssd_integral_image_c, ptr %4, align 8, !tbaa !97
  %5 = load ptr, ptr %2, align 8, !tbaa !95
  %6 = getelementptr inbounds nuw %struct.NLMeansDSPContext, ptr %5, i32 0, i32 1
  store ptr @compute_weights_line_c, ptr %6, align 8, !tbaa !102
  ret void
}

; Function Attrs: cold nounwind optsize uwtable
define internal i32 @init(ptr noundef %0) #0 {
  %2 = alloca i32, align 4
  %3 = alloca ptr, align 8
  %4 = alloca ptr, align 8
  %5 = alloca double, align 8
  %6 = alloca i32, align 4
  %7 = alloca i32, align 4
  store ptr %0, ptr %3, align 8, !tbaa !4
  call void @llvm.lifetime.start.p0(i64 8, ptr %4) #10
  %8 = load ptr, ptr %3, align 8, !tbaa !4
  %9 = getelementptr inbounds nuw %struct.AVFilterContext, ptr %8, i32 0, i32 9
  %10 = load ptr, ptr %9, align 8, !tbaa !9
  store ptr %10, ptr %4, align 8, !tbaa !22
  call void @llvm.lifetime.start.p0(i64 8, ptr %5) #10
  %11 = load ptr, ptr %4, align 8, !tbaa !22
  %12 = getelementptr inbounds nuw %struct.NLMeansContext, ptr %11, i32 0, i32 5
  %13 = load double, ptr %12, align 8, !tbaa !24
  %14 = fmul nsz double %13, 1.000000e+01
  store double %14, ptr %5, align 8, !tbaa !31
  %15 = load double, ptr %5, align 8, !tbaa !31
  %16 = load double, ptr %5, align 8, !tbaa !31
  %17 = fmul nsz double %15, %16
  %18 = fdiv nsz double 1.000000e+00, %17
  %19 = load ptr, ptr %4, align 8, !tbaa !22
  %20 = getelementptr inbounds nuw %struct.NLMeansContext, ptr %19, i32 0, i32 4
  store double %18, ptr %20, align 8, !tbaa !32
  %21 = call nsz double @llvm.log.f64(double 2.550000e+02)
  %22 = load ptr, ptr %4, align 8, !tbaa !22
  %23 = getelementptr inbounds nuw %struct.NLMeansContext, ptr %22, i32 0, i32 4
  %24 = load double, ptr %23, align 8, !tbaa !32
  %25 = fdiv nsz double %21, %24
  %26 = fptoui double %25 to i32
  %27 = load ptr, ptr %4, align 8, !tbaa !22
  %28 = getelementptr inbounds nuw %struct.NLMeansContext, ptr %27, i32 0, i32 23
  store i32 %26, ptr %28, align 8, !tbaa !33
  %29 = load ptr, ptr %4, align 8, !tbaa !22
  %30 = getelementptr inbounds nuw %struct.NLMeansContext, ptr %29, i32 0, i32 23
  %31 = load i32, ptr %30, align 8, !tbaa !33
  %32 = add i32 %31, 1
  %33 = zext i32 %32 to i64
  %34 = call noalias ptr @av_calloc(i64 noundef %33, i64 noundef 4)
  %35 = load ptr, ptr %4, align 8, !tbaa !22
  %36 = getelementptr inbounds nuw %struct.NLMeansContext, ptr %35, i32 0, i32 22
  store ptr %34, ptr %36, align 8, !tbaa !34
  %37 = load ptr, ptr %4, align 8, !tbaa !22
  %38 = getelementptr inbounds nuw %struct.NLMeansContext, ptr %37, i32 0, i32 22
  %39 = load ptr, ptr %38, align 8, !tbaa !34
  %40 = icmp ne ptr %39, null
  br i1 %40, label %42, label %41

41:                                               ; preds = %1
  store i32 -12, ptr %2, align 4
  store i32 1, ptr %6, align 4
  br label %215

42:                                               ; preds = %1
  call void @llvm.lifetime.start.p0(i64 4, ptr %7) #10
  store i32 0, ptr %7, align 4, !tbaa !35
  br label %43

43:                                               ; preds = %66, %42
  %44 = load i32, ptr %7, align 4, !tbaa !35
  %45 = load ptr, ptr %4, align 8, !tbaa !22
  %46 = getelementptr inbounds nuw %struct.NLMeansContext, ptr %45, i32 0, i32 23
  %47 = load i32, ptr %46, align 8, !tbaa !33
  %48 = icmp ult i32 %44, %47
  br i1 %48, label %50, label %49

49:                                               ; preds = %43
  store i32 2, ptr %6, align 4
  call void @llvm.lifetime.end.p0(i64 4, ptr %7) #10
  br label %69

50:                                               ; preds = %43
  %51 = load i32, ptr %7, align 4, !tbaa !35
  %52 = sub nsw i32 0, %51
  %53 = sitofp i32 %52 to double
  %54 = load ptr, ptr %4, align 8, !tbaa !22
  %55 = getelementptr inbounds nuw %struct.NLMeansContext, ptr %54, i32 0, i32 4
  %56 = load double, ptr %55, align 8, !tbaa !32
  %57 = fmul nsz double %53, %56
  %58 = call nsz double @llvm.exp.f64(double %57)
  %59 = fptrunc nsz double %58 to float
  %60 = load ptr, ptr %4, align 8, !tbaa !22
  %61 = getelementptr inbounds nuw %struct.NLMeansContext, ptr %60, i32 0, i32 22
  %62 = load ptr, ptr %61, align 8, !tbaa !34
  %63 = load i32, ptr %7, align 4, !tbaa !35
  %64 = sext i32 %63 to i64
  %65 = getelementptr inbounds float, ptr %62, i64 %64
  store float %59, ptr %65, align 4, !tbaa !36
  br label %66

66:                                               ; preds = %50
  %67 = load i32, ptr %7, align 4, !tbaa !35
  %68 = add nsw i32 %67, 1
  store i32 %68, ptr %7, align 4, !tbaa !35
  br label %43, !llvm.loop !38

69:                                               ; preds = %49
  br label %70

70:                                               ; preds = %69
  %71 = load ptr, ptr %4, align 8, !tbaa !22
  %72 = getelementptr inbounds nuw %struct.NLMeansContext, ptr %71, i32 0, i32 10
  %73 = load i32, ptr %72, align 8, !tbaa !40
  %74 = and i32 %73, 1
  %75 = icmp ne i32 %74, 0
  br i1 %75, label %85, label %76

76:                                               ; preds = %70
  %77 = load ptr, ptr %4, align 8, !tbaa !22
  %78 = getelementptr inbounds nuw %struct.NLMeansContext, ptr %77, i32 0, i32 10
  %79 = load i32, ptr %78, align 8, !tbaa !40
  %80 = or i32 %79, 1
  store i32 %80, ptr %78, align 8, !tbaa !40
  %81 = load ptr, ptr %3, align 8, !tbaa !4
  %82 = load ptr, ptr %4, align 8, !tbaa !22
  %83 = getelementptr inbounds nuw %struct.NLMeansContext, ptr %82, i32 0, i32 10
  %84 = load i32, ptr %83, align 8, !tbaa !40
  call void (ptr, i32, ptr, ...) @av_log(ptr noundef %81, i32 noundef 24, ptr noundef @.str.15, i32 noundef %84)
  br label %85

85:                                               ; preds = %76, %70
  br label %86

86:                                               ; preds = %85
  br label %87

87:                                               ; preds = %86
  br label %88

88:                                               ; preds = %87
  %89 = load ptr, ptr %4, align 8, !tbaa !22
  %90 = getelementptr inbounds nuw %struct.NLMeansContext, ptr %89, i32 0, i32 6
  %91 = load i32, ptr %90, align 8, !tbaa !41
  %92 = and i32 %91, 1
  %93 = icmp ne i32 %92, 0
  br i1 %93, label %103, label %94

94:                                               ; preds = %88
  %95 = load ptr, ptr %4, align 8, !tbaa !22
  %96 = getelementptr inbounds nuw %struct.NLMeansContext, ptr %95, i32 0, i32 6
  %97 = load i32, ptr %96, align 8, !tbaa !41
  %98 = or i32 %97, 1
  store i32 %98, ptr %96, align 8, !tbaa !41
  %99 = load ptr, ptr %3, align 8, !tbaa !4
  %100 = load ptr, ptr %4, align 8, !tbaa !22
  %101 = getelementptr inbounds nuw %struct.NLMeansContext, ptr %100, i32 0, i32 6
  %102 = load i32, ptr %101, align 8, !tbaa !41
  call void (ptr, i32, ptr, ...) @av_log(ptr noundef %99, i32 noundef 24, ptr noundef @.str.16, i32 noundef %102)
  br label %103

103:                                              ; preds = %94, %88
  br label %104

104:                                              ; preds = %103
  br label %105

105:                                              ; preds = %104
  %106 = load ptr, ptr %4, align 8, !tbaa !22
  %107 = getelementptr inbounds nuw %struct.NLMeansContext, ptr %106, i32 0, i32 12
  %108 = load i32, ptr %107, align 8, !tbaa !42
  %109 = icmp ne i32 %108, 0
  br i1 %109, label %116, label %110

110:                                              ; preds = %105
  %111 = load ptr, ptr %4, align 8, !tbaa !22
  %112 = getelementptr inbounds nuw %struct.NLMeansContext, ptr %111, i32 0, i32 10
  %113 = load i32, ptr %112, align 8, !tbaa !40
  %114 = load ptr, ptr %4, align 8, !tbaa !22
  %115 = getelementptr inbounds nuw %struct.NLMeansContext, ptr %114, i32 0, i32 12
  store i32 %113, ptr %115, align 8, !tbaa !42
  br label %116

116:                                              ; preds = %110, %105
  %117 = load ptr, ptr %4, align 8, !tbaa !22
  %118 = getelementptr inbounds nuw %struct.NLMeansContext, ptr %117, i32 0, i32 8
  %119 = load i32, ptr %118, align 8, !tbaa !43
  %120 = icmp ne i32 %119, 0
  br i1 %120, label %127, label %121

121:                                              ; preds = %116
  %122 = load ptr, ptr %4, align 8, !tbaa !22
  %123 = getelementptr inbounds nuw %struct.NLMeansContext, ptr %122, i32 0, i32 6
  %124 = load i32, ptr %123, align 8, !tbaa !41
  %125 = load ptr, ptr %4, align 8, !tbaa !22
  %126 = getelementptr inbounds nuw %struct.NLMeansContext, ptr %125, i32 0, i32 8
  store i32 %124, ptr %126, align 8, !tbaa !43
  br label %127

127:                                              ; preds = %121, %116
  br label %128

128:                                              ; preds = %127
  %129 = load ptr, ptr %4, align 8, !tbaa !22
  %130 = getelementptr inbounds nuw %struct.NLMeansContext, ptr %129, i32 0, i32 12
  %131 = load i32, ptr %130, align 8, !tbaa !42
  %132 = and i32 %131, 1
  %133 = icmp ne i32 %132, 0
  br i1 %133, label %143, label %134

134:                                              ; preds = %128
  %135 = load ptr, ptr %4, align 8, !tbaa !22
  %136 = getelementptr inbounds nuw %struct.NLMeansContext, ptr %135, i32 0, i32 12
  %137 = load i32, ptr %136, align 8, !tbaa !42
  %138 = or i32 %137, 1
  store i32 %138, ptr %136, align 8, !tbaa !42
  %139 = load ptr, ptr %3, align 8, !tbaa !4
  %140 = load ptr, ptr %4, align 8, !tbaa !22
  %141 = getelementptr inbounds nuw %struct.NLMeansContext, ptr %140, i32 0, i32 12
  %142 = load i32, ptr %141, align 8, !tbaa !42
  call void (ptr, i32, ptr, ...) @av_log(ptr noundef %139, i32 noundef 24, ptr noundef @.str.17, i32 noundef %142)
  br label %143

143:                                              ; preds = %134, %128
  br label %144

144:                                              ; preds = %143
  br label %145

145:                                              ; preds = %144
  br label %146

146:                                              ; preds = %145
  %147 = load ptr, ptr %4, align 8, !tbaa !22
  %148 = getelementptr inbounds nuw %struct.NLMeansContext, ptr %147, i32 0, i32 8
  %149 = load i32, ptr %148, align 8, !tbaa !43
  %150 = and i32 %149, 1
  %151 = icmp ne i32 %150, 0
  br i1 %151, label %161, label %152

152:                                              ; preds = %146
  %153 = load ptr, ptr %4, align 8, !tbaa !22
  %154 = getelementptr inbounds nuw %struct.NLMeansContext, ptr %153, i32 0, i32 8
  %155 = load i32, ptr %154, align 8, !tbaa !43
  %156 = or i32 %155, 1
  store i32 %156, ptr %154, align 8, !tbaa !43
  %157 = load ptr, ptr %3, align 8, !tbaa !4
  %158 = load ptr, ptr %4, align 8, !tbaa !22
  %159 = getelementptr inbounds nuw %struct.NLMeansContext, ptr %158, i32 0, i32 8
  %160 = load i32, ptr %159, align 8, !tbaa !43
  call void (ptr, i32, ptr, ...) @av_log(ptr noundef %157, i32 noundef 24, ptr noundef @.str.18, i32 noundef %160)
  br label %161

161:                                              ; preds = %152, %146
  br label %162

162:                                              ; preds = %161
  br label %163

163:                                              ; preds = %162
  %164 = load ptr, ptr %4, align 8, !tbaa !22
  %165 = getelementptr inbounds nuw %struct.NLMeansContext, ptr %164, i32 0, i32 10
  %166 = load i32, ptr %165, align 8, !tbaa !40
  %167 = sdiv i32 %166, 2
  %168 = load ptr, ptr %4, align 8, !tbaa !22
  %169 = getelementptr inbounds nuw %struct.NLMeansContext, ptr %168, i32 0, i32 11
  store i32 %167, ptr %169, align 4, !tbaa !44
  %170 = load ptr, ptr %4, align 8, !tbaa !22
  %171 = getelementptr inbounds nuw %struct.NLMeansContext, ptr %170, i32 0, i32 12
  %172 = load i32, ptr %171, align 8, !tbaa !42
  %173 = sdiv i32 %172, 2
  %174 = load ptr, ptr %4, align 8, !tbaa !22
  %175 = getelementptr inbounds nuw %struct.NLMeansContext, ptr %174, i32 0, i32 13
  store i32 %173, ptr %175, align 4, !tbaa !45
  %176 = load ptr, ptr %4, align 8, !tbaa !22
  %177 = getelementptr inbounds nuw %struct.NLMeansContext, ptr %176, i32 0, i32 6
  %178 = load i32, ptr %177, align 8, !tbaa !41
  %179 = sdiv i32 %178, 2
  %180 = load ptr, ptr %4, align 8, !tbaa !22
  %181 = getelementptr inbounds nuw %struct.NLMeansContext, ptr %180, i32 0, i32 7
  store i32 %179, ptr %181, align 4, !tbaa !46
  %182 = load ptr, ptr %4, align 8, !tbaa !22
  %183 = getelementptr inbounds nuw %struct.NLMeansContext, ptr %182, i32 0, i32 8
  %184 = load i32, ptr %183, align 8, !tbaa !43
  %185 = sdiv i32 %184, 2
  %186 = load ptr, ptr %4, align 8, !tbaa !22
  %187 = getelementptr inbounds nuw %struct.NLMeansContext, ptr %186, i32 0, i32 9
  store i32 %185, ptr %187, align 4, !tbaa !47
  %188 = load ptr, ptr %3, align 8, !tbaa !4
  %189 = load ptr, ptr %4, align 8, !tbaa !22
  %190 = getelementptr inbounds nuw %struct.NLMeansContext, ptr %189, i32 0, i32 10
  %191 = load i32, ptr %190, align 8, !tbaa !40
  %192 = load ptr, ptr %4, align 8, !tbaa !22
  %193 = getelementptr inbounds nuw %struct.NLMeansContext, ptr %192, i32 0, i32 10
  %194 = load i32, ptr %193, align 8, !tbaa !40
  %195 = load ptr, ptr %4, align 8, !tbaa !22
  %196 = getelementptr inbounds nuw %struct.NLMeansContext, ptr %195, i32 0, i32 12
  %197 = load i32, ptr %196, align 8, !tbaa !42
  %198 = load ptr, ptr %4, align 8, !tbaa !22
  %199 = getelementptr inbounds nuw %struct.NLMeansContext, ptr %198, i32 0, i32 12
  %200 = load i32, ptr %199, align 8, !tbaa !42
  %201 = load ptr, ptr %4, align 8, !tbaa !22
  %202 = getelementptr inbounds nuw %struct.NLMeansContext, ptr %201, i32 0, i32 6
  %203 = load i32, ptr %202, align 8, !tbaa !41
  %204 = load ptr, ptr %4, align 8, !tbaa !22
  %205 = getelementptr inbounds nuw %struct.NLMeansContext, ptr %204, i32 0, i32 6
  %206 = load i32, ptr %205, align 8, !tbaa !41
  %207 = load ptr, ptr %4, align 8, !tbaa !22
  %208 = getelementptr inbounds nuw %struct.NLMeansContext, ptr %207, i32 0, i32 8
  %209 = load i32, ptr %208, align 8, !tbaa !43
  %210 = load ptr, ptr %4, align 8, !tbaa !22
  %211 = getelementptr inbounds nuw %struct.NLMeansContext, ptr %210, i32 0, i32 8
  %212 = load i32, ptr %211, align 8, !tbaa !43
  call void (ptr, i32, ptr, ...) @av_log(ptr noundef %188, i32 noundef 48, ptr noundef @.str.19, i32 noundef %191, i32 noundef %194, i32 noundef %197, i32 noundef %200, i32 noundef %203, i32 noundef %206, i32 noundef %209, i32 noundef %212)
  %213 = load ptr, ptr %4, align 8, !tbaa !22
  %214 = getelementptr inbounds nuw %struct.NLMeansContext, ptr %213, i32 0, i32 24
  call void @ff_nlmeans_init(ptr noundef %214)
  store i32 0, ptr %2, align 4
  store i32 1, ptr %6, align 4
  br label %215

215:                                              ; preds = %163, %41
  call void @llvm.lifetime.end.p0(i64 8, ptr %5) #10
  call void @llvm.lifetime.end.p0(i64 8, ptr %4) #10
  %216 = load i32, ptr %2, align 4
  ret i32 %216
}