; Function Attrs: cold nounwind optsize uwtable
define internal range(i32 -12, 1) i32 @init(ptr noundef %0) #0 {
  %2 = getelementptr inbounds nuw i8, ptr %0, i64 72
  %3 = load ptr, ptr %2, align 8, !tbaa !4
  %4 = getelementptr inbounds nuw i8, ptr %3, i64 32
  %5 = load double, ptr %4, align 8, !tbaa !20
  %6 = fmul nsz double %5, 1.000000e+01
  %7 = fmul nsz double %6, %6
  %8 = fdiv nsz double 1.000000e+00, %7
  %9 = getelementptr inbounds nuw i8, ptr %3, i64 24
  store double %8, ptr %9, align 8, !tbaa !27
  %10 = fdiv nsz double 0x40162A40FDA3E3CC, %8
  %11 = fptoui double %10 to i32
  %12 = getelementptr inbounds nuw i8, ptr %3, i64 136
  store i32 %11, ptr %12, align 8, !tbaa !28
  %13 = add i32 %11, 1
  %14 = zext i32 %13 to i64
  %15 = tail call noalias ptr @av_calloc(i64 noundef %14, i64 noundef 4) #9
  %16 = getelementptr inbounds nuw i8, ptr %3, i64 128
  store ptr %15, ptr %16, align 8, !tbaa !29
  %.not = icmp eq ptr %15, null
  br i1 %.not, label %74, label %.preheader

.preheader:                                       ; preds = %1
  %17 = load i32, ptr %12, align 8, !tbaa !28
  %.not65 = icmp eq i32 %17, 0
  br i1 %.not65, label %._crit_edge, label %.lr.ph

.lr.ph:                                           ; preds = %.preheader
  %18 = load double, ptr %9, align 8, !tbaa !27
  %wide.trip.count = zext i32 %17 to i64
  br label %22

._crit_edge:                                      ; preds = %22, %.preheader
  %19 = getelementptr inbounds nuw i8, ptr %3, i64 56
  %20 = load i32, ptr %19, align 8, !tbaa !30
  %21 = and i32 %20, 1
  %.not58 = icmp eq i32 %21, 0
  br i1 %.not58, label %30, label %32

22:                                               ; preds = %.lr.ph, %22
  %indvars.iv = phi i64 [ 0, %.lr.ph ], [ %indvars.iv.next, %22 ]
  %23 = trunc i64 %indvars.iv to i32
  %24 = sub i32 0, %23
  %25 = sitofp i32 %24 to double
  %26 = fmul nsz double %18, %25
  %27 = tail call nsz double @llvm.exp.f64(double %26)
  %28 = fptrunc nsz double %27 to float
  %29 = getelementptr inbounds nuw float, ptr %15, i64 %indvars.iv
  store float %28, ptr %29, align 4, !tbaa !31
  %indvars.iv.next = add nuw nsw i64 %indvars.iv, 1
  %exitcond.not = icmp eq i64 %indvars.iv.next, %wide.trip.count
  br i1 %exitcond.not, label %._crit_edge, label %22, !llvm.loop !33

30:                                               ; preds = %._crit_edge
  %31 = or disjoint i32 %20, 1
  store i32 %31, ptr %19, align 8, !tbaa !30
  tail call void (ptr, i32, ptr, ...) @av_log(ptr noundef nonnull %0, i32 noundef 24, ptr noundef nonnull @.str.15, i32 noundef %31) #9
  br label %32

32:                                               ; preds = %._crit_edge, %30
  %33 = getelementptr inbounds nuw i8, ptr %3, i64 40
  %34 = load i32, ptr %33, align 8, !tbaa !35
  %35 = and i32 %34, 1
  %.not59 = icmp eq i32 %35, 0
  br i1 %.not59, label %36, label %38

36:                                               ; preds = %32
  %37 = or disjoint i32 %34, 1
  store i32 %37, ptr %33, align 8, !tbaa !35
  tail call void (ptr, i32, ptr, ...) @av_log(ptr noundef nonnull %0, i32 noundef 24, ptr noundef nonnull @.str.16, i32 noundef %37) #9
  br label %38

38:                                               ; preds = %36, %32
  %39 = getelementptr inbounds nuw i8, ptr %3, i64 64
  %40 = load i32, ptr %39, align 8, !tbaa !36
  %.not60 = icmp eq i32 %40, 0
  br i1 %.not60, label %41, label %43

41:                                               ; preds = %38
  %42 = load i32, ptr %19, align 8, !tbaa !30
  store i32 %42, ptr %39, align 8, !tbaa !36
  br label %43

43:                                               ; preds = %41, %38
  %44 = phi i32 [ %42, %41 ], [ %40, %38 ]
  %45 = getelementptr inbounds nuw i8, ptr %3, i64 48
  %46 = load i32, ptr %45, align 8, !tbaa !37
  %.not61 = icmp eq i32 %46, 0
  br i1 %.not61, label %47, label %49

47:                                               ; preds = %43
  %48 = load i32, ptr %33, align 8, !tbaa !35
  store i32 %48, ptr %45, align 8, !tbaa !37
  br label %49

49:                                               ; preds = %43, %47
  %50 = phi i32 [ %46, %43 ], [ %48, %47 ]
  %51 = and i32 %44, 1
  %.not62 = icmp eq i32 %51, 0
  br i1 %.not62, label %52, label %54

52:                                               ; preds = %49
  %53 = or disjoint i32 %44, 1
  store i32 %53, ptr %39, align 8, !tbaa !36
  tail call void (ptr, i32, ptr, ...) @av_log(ptr noundef nonnull %0, i32 noundef 24, ptr noundef nonnull @.str.17, i32 noundef %53) #9
  %.pre = load i32, ptr %45, align 8, !tbaa !37
  br label %54

54:                                               ; preds = %49, %52
  %55 = phi i32 [ %50, %49 ], [ %.pre, %52 ]
  %56 = and i32 %55, 1
  %.not63 = icmp eq i32 %56, 0
  br i1 %.not63, label %57, label %59

57:                                               ; preds = %54
  %58 = or disjoint i32 %55, 1
  store i32 %58, ptr %45, align 8, !tbaa !37
  tail call void (ptr, i32, ptr, ...) @av_log(ptr noundef nonnull %0, i32 noundef 24, ptr noundef nonnull @.str.18, i32 noundef %58) #9
  %.pre67 = load i32, ptr %45, align 8, !tbaa !37
  br label %59

59:                                               ; preds = %57, %54
  %60 = phi i32 [ %.pre67, %57 ], [ %55, %54 ]
  %61 = load i32, ptr %19, align 8, !tbaa !30
  %62 = sdiv i32 %61, 2
  %63 = getelementptr inbounds nuw i8, ptr %3, i64 60
  store i32 %62, ptr %63, align 4, !tbaa !38
  %64 = load i32, ptr %39, align 8, !tbaa !36
  %65 = sdiv i32 %64, 2
  %66 = getelementptr inbounds nuw i8, ptr %3, i64 68
  store i32 %65, ptr %66, align 4, !tbaa !39
  %67 = load i32, ptr %33, align 8, !tbaa !35
  %68 = sdiv i32 %67, 2
  %69 = getelementptr inbounds nuw i8, ptr %3, i64 44
  store i32 %68, ptr %69, align 4, !tbaa !40
  %70 = sdiv i32 %60, 2
  %71 = getelementptr inbounds nuw i8, ptr %3, i64 52
  store i32 %70, ptr %71, align 4, !tbaa !41
  tail call void (ptr, i32, ptr, ...) @av_log(ptr noundef nonnull %0, i32 noundef 48, ptr noundef nonnull @.str.19, i32 noundef %61, i32 noundef %61, i32 noundef %64, i32 noundef %64, i32 noundef %67, i32 noundef %67, i32 noundef %60, i32 noundef %60) #9
  %72 = getelementptr inbounds nuw i8, ptr %3, i64 144
  store ptr @compute_safe_ssd_integral_image_c, ptr %72, align 8, !tbaa !42
  %73 = getelementptr inbounds nuw i8, ptr %3, i64 152
  store ptr @compute_weights_line_c, ptr %73, align 8, !tbaa !43
  br label %74

74:                                               ; preds = %1, %59
  %.057 = phi i32 [ 0, %59 ], [ -12, %1 ]
  ret i32 %.057
}